target datalayout = "e-m:e-p270:32:32-p271:32:32-p272:64:64-i64:64-i128:128-f80:128-n8:16:32:64-S128"
target triple = "x86_64-pc-linux-gnu"

%class.ciObjArrayKlass = type { %class.ciArrayKlass, ptr, ptr }
%class.ciArrayKlass = type { %class.ciKlass.base, i32 }
%class.ciKlass.base = type <{ %class.ciType.base, [7 x i8], ptr, i32 }>
%class.ciType.base = type <{ %class.ciMetadata, i8 }>
%class.ciMetadata = type { %class.ciBaseObject.base, ptr }
%class.ciBaseObject.base = type <{ ptr, i32 }>

; Function Attrs: mustprogress nounwind uwtable
define hidden void @_ZN15ciObjArrayKlassC2EP8ciSymbolP7ciKlassi(ptr noundef nonnull align 8 dereferenceable(64) %0, ptr noundef %1, ptr noundef %2, i32 noundef %3) unnamed_addr #1 align 2 {
  %5 = alloca ptr, align 8
  %6 = alloca ptr, align 8
  %7 = alloca ptr, align 8
  %8 = alloca i32, align 4
  store ptr %0, ptr %5, align 8
  store ptr %1, ptr %6, align 8
  store ptr %2, ptr %7, align 8
  store i32 %3, ptr %8, align 4
  %9 = load ptr, ptr %5, align 8
  %10 = load ptr, ptr %6, align 8
  %11 = load i32, ptr %8, align 4
  call void @_ZN12ciArrayKlassC2EP8ciSymboli9BasicType(ptr noundef nonnull align 8 dereferenceable(48) %9, ptr noundef %10, i32 noundef %11, i8 noundef zeroext 12)
  store ptr getelementptr inbounds inrange(-16, 216) ({ [29 x ptr] }, ptr @_ZTV15ciObjArrayKlass, i32 0, i32 0, i32 2), ptr %9, align 8
  %12 = load ptr, ptr %7, align 8
  %13 = getelementptr inbounds %class.ciObjArrayKlass, ptr %9, i32 0, i32 2
  store ptr %12, ptr %13, align 8
  %14 = load i32, ptr %8, align 4
  %15 = icmp eq i32 %14, 1
  br i1 %15, label %16, label %19

16:                                               ; preds = %4
  %17 = load ptr, ptr %7, align 8
  %18 = getelementptr inbounds %class.ciObjArrayKlass, ptr %9, i32 0, i32 1
  store ptr %17, ptr %18, align 8
  br label %21

19:                                               ; preds = %4
  %20 = getelementptr inbounds %class.ciObjArrayKlass, ptr %9, i32 0, i32 1
  store ptr null, ptr %20, align 8
  br label %21

21:                                               ; preds = %19, %16
  ret void
}